(dp0
S'snes_linesearch_alpha'
p1
F1e-09
sS'eq_def'
p2
S'weak'
p3
sS'rc_inv'
p4
(lp5
F0.01
aF0.0001
aF10.0
aF40.0
asS'eps_rp'
p6
F1e-05
sS'n_steps'
p7
I2
sS'ty'
p8
F31536000.0
sS'tol'
p9
F1e-06
sS'A'
p10
F1.10376e-17
sS'rhow'
p11
F1000.0
sS'rhoi'
p12
F917.0
sS'dt'
p13
F0.1
sS'solver_param'
p14
(dp15
S'nonlinear_solver'
p16
S'snes'
p17
sS'snes_solver'
p18
(dp19
S'absolute_tolerance'
p20
F1.0
sS'linear_solver'
p21
S'umfpack'
p22
sS'relative_tolerance'
p23
F1e-18
sS'error_on_nonconvergence'
p24
I00
sS'solution_tolerance'
p25
F1e-18
sssS'solver_default'
p26
(dp27
S'newton_solver'
p28
(dp29
g21
g22
sS'maximum_iterations'
p30
I50
sS'relaxation_parameter'
p31
F0.7
sg23
F1e-15
sg24
I00
sg20
F1.0
sssS'outdir'
p32
S'./output_smith_forward/'
p33
sS'g'
p34
F9.81
sS'solver'
p35
S'petsc'
p36
sS'n'
p37
F3.0
sS'run_length'
p38
F0.2
sS'solver_petsc'
p39
g15
sS'inv_options'
p40
(dp41
S'disp'
p42
I01
sS'maxiter'
p43
I20
ss.