(dp0
S'A'
p1
F1.10376e-17
sS'snes_linesearch_alpha'
p2
F1e-09
sS'rhow'
p3
F1000.0
sS'eq_def'
p4
S'weak'
p5
sS'rc_inv'
p6
(lp7
I1
aF0.0001
aF5000000.0
aF40.0
asS'eps_rp'
p8
F1e-05
sS'rhoi'
p9
F917.0
sS'n_steps'
p10
I20
sS'dt'
p11
F0.05
sS'solver_param'
p12
(dp13
S'snes_solver'
p14
(dp15
S'absolute_tolerance'
p16
F1.0
sS'linear_solver'
p17
S'umfpack'
p18
sS'relative_tolerance'
p19
F1e-18
sS'error_on_nonconvergence'
p20
I00
sS'solution_tolerance'
p21
F1e-18
ssS'nonlinear_solver'
p22
S'snes'
p23
ssS'solver_default'
p24
(dp25
S'newton_solver'
p26
(dp27
g17
g18
sS'maximum_iterations'
p28
I50
sS'relaxation_parameter'
p29
F0.7
sg19
F1e-15
sg20
I00
sg16
F1.0
sssS'outdir'
p30
S'./output_smith_inv/'
p31
sS'g'
p32
F9.81
sS'ty'
p33
F31536000.0
sS'solver'
p34
S'petsc'
p35
sS'n'
p36
F3.0
sS'run_length'
p37
F1.0
sS'solver_petsc'
p38
g13
sS'tol'
p39
F1e-06
sS'inv_options'
p40
(dp41
S'disp'
p42
I01
sS'maxiter'
p43
I5
ss.