(dp0
S'A'
p1
F1.10376e-17
sS'snes_linesearch_alpha'
p2
F1e-09
sS'solver_param'
p3
(dp4
S'snes_solver'
p5
(dp6
S'absolute_tolerance'
p7
F1.0
sS'linear_solver'
p8
S'umfpack'
p9
sS'relative_tolerance'
p10
F1e-18
sS'error_on_nonconvergence'
p11
I00
sS'solution_tolerance'
p12
F1e-18
ssS'nonlinear_solver'
p13
S'snes'
p14
ssS'inv_options'
p15
(dp16
S'disp'
p17
I01
sS'maxiter'
p18
I15
ssS'g'
p19
F9.81
sS'ty'
p20
F31536000.0
sS'eq_def'
p21
S'weak'
p22
sS'solver'
p23
S'petsc'
p24
sS'rhow'
p25
F1000.0
sS'n'
p26
F3.0
sS'eps_rp'
p27
F1e-05
sS'rhoi'
p28
F917.0
sS'solver_petsc'
p29
g4
sS'tol'
p30
F1e-06
sS'rc_inv'
p31
(lp32
F1e-05
aF0.0001
aI100
aI40
asS'solver_default'
p33
(dp34
S'newton_solver'
p35
(dp36
g8
g9
sS'maximum_iterations'
p37
I50
sS'relaxation_parameter'
p38
F0.7
sg10
F1e-15
sg11
I00
sg7
F1.0
sssS'outdir'
p39
S'./output_smith_inv_RT_uncrossed/'
p40
s.